; Function Attrs: mustprogress uwtable
define hidden void @_ZN4cvc58internal6theory11quantifiers15BoundedIntegers25IntRangeDecisionHeuristic9mkLiteralEj(ptr dead_on_unwind noalias writable sret(%"class.cvc5::internal::NodeTemplate") align 8 %0, ptr noundef nonnull align 8 dereferenceable(272) %1, i32 noundef %2) unnamed_addr #3 align 2 personality ptr @__gxx_personality_v0 {
  %4 = alloca %"class.cvc5::internal::NodeBuilder", align 8
  %5 = alloca %"class.cvc5::internal::NodeTemplate.383", align 8
  %6 = alloca %"class.cvc5::internal::NodeTemplate.383", align 8
  %7 = alloca %"class.cvc5::internal::NodeTemplate", align 8
  %8 = alloca %"class.cvc5::internal::Rational", align 8
  %9 = tail call noundef ptr @_ZNK4cvc58internal6EnvObj11nodeManagerEv(ptr noundef nonnull align 8 dereferenceable(16) %1)
  call void @llvm.lifetime.start.p0(i64 8, ptr nonnull %7) #26
  call void @llvm.lifetime.start.p0(i64 32, ptr nonnull %8) #26
  %10 = tail call i32 @llvm.usub.sat.i32(i32 %2, i32 1)
  call void @_ZN4cvc58internal8RationalC2Ej(ptr noundef nonnull align 8 dereferenceable(32) %8, i32 noundef %10)
  invoke void @_ZN4cvc58internal11NodeManager10mkConstIntERKNS0_8RationalE(ptr dead_on_unwind nonnull writable sret(%"class.cvc5::internal::NodeTemplate") align 8 %7, ptr noundef nonnull align 8 dereferenceable(3560) %9, ptr noundef nonnull align 8 dereferenceable(32) %8)
          to label %11 unwind label %47

11:                                               ; preds = %3
  invoke void @__gmpq_clear(ptr noundef nonnull align 8 dereferenceable(32) %8)
          to label %_ZN4cvc58internal8RationalD2Ev.exit unwind label %12

12:                                               ; preds = %11
  %13 = landingpad { ptr, i32 }
          catch ptr null
  %14 = extractvalue { ptr, i32 } %13, 0
  call void @__clang_call_terminate(ptr %14) #28
  unreachable

_ZN4cvc58internal8RationalD2Ev.exit:              ; preds = %11
  %15 = icmp eq i32 %2, 0
  call void @llvm.lifetime.end.p0(i64 32, ptr nonnull %8) #26
  %16 = select i1 %15, i32 75, i32 76
  %17 = getelementptr inbounds nuw i8, ptr %1, i64 152
  %18 = load ptr, ptr %17, align 8, !tbaa !6
  %19 = load ptr, ptr %7, align 8, !tbaa !6
  call void @llvm.lifetime.start.p0(i64 8, ptr nonnull %5)
  call void @llvm.lifetime.start.p0(i64 8, ptr nonnull %6)
  call void @llvm.lifetime.start.p0(i64 128, ptr nonnull %4) #26, !noalias !289
  %20 = getelementptr inbounds nuw i8, ptr %18, i64 16
  %21 = load ptr, ptr %20, align 8, !tbaa !292, !noalias !289
  invoke void @_ZN4cvc58internal11NodeBuilderC1EPNS0_11NodeManagerENS0_4kind6Kind_tE(ptr noundef nonnull align 8 dereferenceable(124) %4, ptr noundef %21, i32 noundef %16)
          to label %.noexc unwind label %52

.noexc:                                           ; preds = %_ZN4cvc58internal8RationalD2Ev.exit
  store ptr %18, ptr %5, align 8, !tbaa !269, !noalias !289
  %22 = invoke noundef nonnull align 8 dereferenceable(124) ptr @_ZN4cvc58internal11NodeBuilderlsENS0_12NodeTemplateILb0EEE(ptr noundef nonnull align 8 dereferenceable(124) %4, ptr noundef nonnull %5)
          to label %23 unwind label %28, !noalias !289

23:                                               ; preds = %.noexc
  store ptr %19, ptr %6, align 8, !tbaa !269, !noalias !289
  %24 = invoke noundef nonnull align 8 dereferenceable(124) ptr @_ZN4cvc58internal11NodeBuilderlsENS0_12NodeTemplateILb0EEE(ptr noundef nonnull align 8 dereferenceable(124) %22, ptr noundef nonnull %6)
          to label %25 unwind label %30, !noalias !289

25:                                               ; preds = %23
  invoke void @_ZN4cvc58internal11NodeBuilder13constructNodeEv(ptr dead_on_unwind writable sret(%"class.cvc5::internal::NodeTemplate") align 8 %0, ptr noundef nonnull align 8 dereferenceable(124) %4)
          to label %33 unwind label %26

26:                                               ; preds = %25
  %27 = landingpad { ptr, i32 }
          cleanup
  br label %32

28:                                               ; preds = %.noexc
  %29 = landingpad { ptr, i32 }
          cleanup
  br label %32

30:                                               ; preds = %23
  %31 = landingpad { ptr, i32 }
          cleanup
  br label %32

32:                                               ; preds = %30, %28, %26
  %.pn5.i = phi { ptr, i32 } [ %27, %26 ], [ %31, %30 ], [ %29, %28 ]
  call void @_ZN4cvc58internal11NodeBuilderD1Ev(ptr noundef nonnull align 8 dereferenceable(124) %4) #26
  call void @llvm.lifetime.end.p0(i64 128, ptr nonnull %4) #26, !noalias !289
  br label %.body

33:                                               ; preds = %25
  call void @_ZN4cvc58internal11NodeBuilderD1Ev(ptr noundef nonnull align 8 dereferenceable(124) %4) #26
  call void @llvm.lifetime.end.p0(i64 128, ptr nonnull %4) #26, !noalias !289
  call void @llvm.lifetime.end.p0(i64 8, ptr nonnull %5)
  call void @llvm.lifetime.end.p0(i64 8, ptr nonnull %6)
  %34 = load ptr, ptr %7, align 8, !tbaa !6
  %35 = load i64, ptr %34, align 8
  %36 = and i64 %35, 1152920405095219200
  %.not.i.i = icmp eq i64 %36, 1152920405095219200
  br i1 %.not.i.i, label %_ZN4cvc58internal12NodeTemplateILb1EED2Ev.exit, label %37, !prof !12

37:                                               ; preds = %33
  %38 = add i64 %35, 1152920405095219200
  %39 = and i64 %38, 1152920405095219200
  %40 = and i64 %35, -1152920405095219201
  %41 = or disjoint i64 %39, %40
  store i64 %41, ptr %34, align 8
  %42 = icmp eq i64 %39, 0
  br i1 %42, label %43, label %_ZN4cvc58internal12NodeTemplateILb1EED2Ev.exit, !prof !12

43:                                               ; preds = %37
  invoke void @_ZN4cvc58internal4expr9NodeValue15markForDeletionEv(ptr noundef nonnull align 8 dereferenceable(24) %34)
          to label %_ZN4cvc58internal12NodeTemplateILb1EED2Ev.exit unwind label %44

44:                                               ; preds = %43
  %45 = landingpad { ptr, i32 }
          catch ptr null
  %46 = extractvalue { ptr, i32 } %45, 0
  call void @__clang_call_terminate(ptr %46) #28
  unreachable

_ZN4cvc58internal12NodeTemplateILb1EED2Ev.exit:   ; preds = %33, %37, %43
  call void @llvm.lifetime.end.p0(i64 8, ptr nonnull %7) #26
  ret void

47:                                               ; preds = %3
  %48 = landingpad { ptr, i32 }
          cleanup
  invoke void @__gmpq_clear(ptr noundef nonnull align 8 dereferenceable(32) %8)
          to label %_ZN4cvc58internal8RationalD2Ev.exit8 unwind label %49

49:                                               ; preds = %47
  %50 = landingpad { ptr, i32 }
          catch ptr null
  %51 = extractvalue { ptr, i32 } %50, 0
  call void @__clang_call_terminate(ptr %51) #28
  unreachable

_ZN4cvc58internal8RationalD2Ev.exit8:             ; preds = %47
  call void @llvm.lifetime.end.p0(i64 32, ptr nonnull %8) #26
  br label %54

52:                                               ; preds = %_ZN4cvc58internal8RationalD2Ev.exit
  %53 = landingpad { ptr, i32 }
          cleanup
  br label %.body

.body:                                            ; preds = %32, %52
  %eh.lpad-body = phi { ptr, i32 } [ %53, %52 ], [ %.pn5.i, %32 ]
  call void @_ZN4cvc58internal12NodeTemplateILb1EED2Ev(ptr noundef nonnull align 8 dereferenceable(8) %7) #26
  br label %54

54:                                               ; preds = %.body, %_ZN4cvc58internal8RationalD2Ev.exit8
  %.pn = phi { ptr, i32 } [ %eh.lpad-body, %.body ], [ %48, %_ZN4cvc58internal8RationalD2Ev.exit8 ]
  call void @llvm.lifetime.end.p0(i64 8, ptr nonnull %7) #26
  resume { ptr, i32 } %.pn
}